; Function Attrs: nounwind uwtable
define hidden void @_mi_process_done() local_unnamed_addr #1 {
  %1 = load i8, ptr @_mi_process_is_initialized, align 1, !tbaa !23, !range !47, !noundef !48
  %2 = trunc nuw i8 %1 to i1
  br i1 %2, label %3, label %16

3:                                                ; preds = %0
  %.b3 = load i1, ptr @_mi_process_done.process_done, align 1
  br i1 %.b3, label %16, label %4

4:                                                ; preds = %3
  store i1 true, ptr @_mi_process_done.process_done, align 1
  %5 = tail call align 8 ptr @llvm.threadlocal.address.p0(ptr align 8 @_mi_heap_default)
  %6 = load ptr, ptr %5, align 8, !tbaa !44
  tail call void @_mi_prim_thread_done_auto_done() #14
  tail call void @mi_heap_collect(ptr noundef %6, i1 noundef zeroext true) #14
  %7 = tail call zeroext i1 @mi_option_is_enabled(i32 noundef 22) #14
  br i1 %7, label %8, label %9

8:                                                ; preds = %4
  tail call void @mi_heap_collect(ptr noundef %6, i1 noundef zeroext true) #14
  tail call void @_mi_heap_unsafe_destroy_all(ptr noundef %6) #14
  tail call void @_mi_arena_unsafe_destroy_all() #14
  tail call void @_mi_segment_map_unsafe_destroy() #14
  br label %9

9:                                                ; preds = %8, %4
  %10 = tail call zeroext i1 @mi_option_is_enabled(i32 noundef 1) #14
  br i1 %10, label %13, label %11

11:                                               ; preds = %9
  %12 = tail call zeroext i1 @mi_option_is_enabled(i32 noundef 2) #14
  br i1 %12, label %13, label %14

13:                                               ; preds = %11, %9
  tail call void @mi_stats_print(ptr noundef null) #14
  br label %14

14:                                               ; preds = %13, %11
  tail call void @_mi_allocator_done() #14
  %15 = load i64, ptr getelementptr inbounds nuw (i8, ptr @_mi_heap_main, i64 16), align 16, !tbaa !14
  tail call void (ptr, ...) @_mi_verbose_message(ptr noundef nonnull @.str.5, i64 noundef %15) #14
  store i1 false, ptr @os_preloading, align 1
  br label %16

16:                                               ; preds = %3, %0, %14
  ret void
}